; Function Attrs: cold nounwind optsize uwtable
define internal range(i32 -12, 1) i32 @bfi_decode_init(ptr noundef captures(none) initializes((136, 140)) %0) #0 {
  %2 = getelementptr inbounds nuw i8, ptr %0, i64 32
  %3 = load ptr, ptr %2, align 8, !tbaa !4
  %4 = getelementptr inbounds nuw i8, ptr %0, i64 136
  store i32 11, ptr %4, align 8, !tbaa !27
  %5 = getelementptr inbounds nuw i8, ptr %0, i64 112
  %6 = load i32, ptr %5, align 8, !tbaa !28
  %7 = getelementptr inbounds nuw i8, ptr %0, i64 116
  %8 = load i32, ptr %7, align 4, !tbaa !29
  %9 = mul nsw i32 %8, %6
  %10 = sext i32 %9 to i64
  %11 = tail call noalias ptr @av_mallocz(i64 noundef %10) #6
  store ptr %11, ptr %3, align 8, !tbaa !30
  %.not = icmp eq ptr %11, null
  %. = select i1 %.not, i32 -12, i32 0
  ret i32 %.
}